; Function Attrs: mustprogress nounwind uwtable
define dso_local { i32, ptr } @_ZN4llvm6AMDGPU5HSAMD8toStringENS1_8MetadataERNSt7__cxx1112basic_stringIcSt11char_traitsIcESaIcEEE(ptr noundef %0, ptr noundef nonnull align 8 dereferenceable(32) %1) local_unnamed_addr #0 {
  %3 = alloca %"class.llvm::raw_string_ostream", align 8
  %4 = alloca %"class.llvm::yaml::Output", align 8
  %5 = getelementptr inbounds nuw i8, ptr %3, i64 8
  store i32 0, ptr %5, align 8
  %6 = getelementptr inbounds nuw i8, ptr %3, i64 40
  store i8 0, ptr %6, align 8
  %7 = getelementptr inbounds nuw i8, ptr %3, i64 44
  store i32 1, ptr %7, align 4
  %8 = getelementptr inbounds nuw i8, ptr %3, i64 16
  call void @llvm.memset.p0.i64(ptr noundef nonnull align 8 dereferenceable(24) %8, i8 0, i64 24, i1 false)
  store ptr getelementptr inbounds inrange(-16, 104) (i8, ptr @_ZTVN4llvm18raw_string_ostreamE, i64 16), ptr %3, align 8
  %9 = getelementptr inbounds nuw i8, ptr %3, i64 48
  store ptr %1, ptr %9, align 8
  call void @_ZN4llvm11raw_ostream16SetBufferAndModeEPcmNS0_10BufferKindE(ptr noundef nonnull align 8 dereferenceable(48) %3, ptr noundef null, i64 noundef 0, i32 noundef 0) #14
  call void @_ZN4llvm4yaml6OutputC1ERNS_11raw_ostreamEPvi(ptr noundef nonnull align 8 dereferenceable(128) %4, ptr noundef nonnull align 8 dereferenceable(48) %3, ptr noundef null, i32 noundef 2147483647) #14
  call void @_ZN4llvm4yaml6Output14beginDocumentsEv(ptr noundef nonnull align 8 dereferenceable(128) %4) #14
  %10 = call noundef zeroext i1 @_ZN4llvm4yaml6Output17preflightDocumentEj(ptr noundef nonnull align 8 dereferenceable(128) %4, i32 noundef 0) #14
  br i1 %10, label %11, label %_ZN4llvm4yamllsINS_6AMDGPU5HSAMD8MetadataEEENSt9enable_ifIXsr17has_MappingTraitsIT_NS0_12EmptyContextEEE5valueERNS0_6OutputEE4typeES9_RS6_.exit

11:                                               ; preds = %2
  %12 = load ptr, ptr %4, align 8
  %13 = getelementptr inbounds i8, ptr %12, i64 104
  %14 = load ptr, ptr %13, align 8
  call void %14(ptr noundef nonnull align 8 dereferenceable(16) %4) #14
  call void @_ZN4llvm4yaml13MappingTraitsINS_6AMDGPU5HSAMD8MetadataEE7mappingERNS0_2IOERS4_(ptr noundef nonnull align 8 dereferenceable(16) %4, ptr noundef nonnull align 8 dereferenceable(72) %0)
  %15 = load ptr, ptr %4, align 8
  %16 = getelementptr inbounds i8, ptr %15, i64 112
  %17 = load ptr, ptr %16, align 8
  call void %17(ptr noundef nonnull align 8 dereferenceable(16) %4) #14
  call void @_ZN4llvm4yaml6Output18postflightDocumentEv(ptr noundef nonnull align 8 dereferenceable(128) %4) #14
  br label %_ZN4llvm4yamllsINS_6AMDGPU5HSAMD8MetadataEEENSt9enable_ifIXsr17has_MappingTraitsIT_NS0_12EmptyContextEEE5valueERNS0_6OutputEE4typeES9_RS6_.exit

_ZN4llvm4yamllsINS_6AMDGPU5HSAMD8MetadataEEENSt9enable_ifIXsr17has_MappingTraitsIT_NS0_12EmptyContextEEE5valueERNS0_6OutputEE4typeES9_RS6_.exit: ; preds = %2, %11
  call void @_ZN4llvm4yaml6Output12endDocumentsEv(ptr noundef nonnull align 8 dereferenceable(128) %4) #14
  %18 = tail call noundef nonnull align 8 dereferenceable(8) ptr @_ZNSt3_V215system_categoryEv() #15
  call void @_ZN4llvm4yaml6OutputD1Ev(ptr noundef nonnull align 8 dereferenceable(128) %4) #14
  call void @_ZN4llvm11raw_ostreamD2Ev(ptr noundef nonnull align 8 dereferenceable(48) %3) #14
  %.fca.1.insert = insertvalue { i32, ptr } { i32 0, ptr poison }, ptr %18, 1
  ret { i32, ptr } %.fca.1.insert
}